; ModuleID = 'source-C-CXX/52/982.c'
source_filename = "source-C-CXX/52/982.c"
target datalayout = "e-m:e-p270:32:32-p271:32:32-p272:64:64-i64:64-f80:128-n8:16:32:64-S128"
target triple = "x86_64-pc-linux-gnu"

@.str = private unnamed_addr constant [3 x i8] c"%d\00", align 1
@.str.1 = private unnamed_addr constant [4 x i8] c"%d,\00", align 1

; Function Attrs: nofree nounwind sspstrong uwtable
define dso_local i32 @main() local_unnamed_addr #0 {
  %1 = alloca i32, align 4
  %2 = alloca [300 x i32], align 16
  %3 = alloca [300 x i32], align 16
  %4 = bitcast i32* %1 to i8*
  call void @llvm.lifetime.start.p0i8(i64 4, i8* nonnull %4) #3
  %5 = call i32 (i8*, ...) @__isoc99_scanf(i8* getelementptr inbounds ([3 x i8], [3 x i8]* @.str, i64 0, i64 0), i32* nonnull %1)
  %6 = bitcast [300 x i32]* %2 to i8*
  call void @llvm.lifetime.start.p0i8(i64 1200, i8* nonnull %6) #3
  %7 = bitcast [300 x i32]* %3 to i8*
  call void @llvm.lifetime.start.p0i8(i64 1200, i8* nonnull %7) #3
  %8 = getelementptr inbounds [300 x i32], [300 x i32]* %2, i64 0, i64 0
  %9 = getelementptr inbounds [300 x i32], [300 x i32]* %3, i64 0, i64 0
  %10 = load i32, i32* %1, align 4, !tbaa !5
  %11 = icmp sgt i32 %10, 0
  br i1 %11, label %12, label %68

12:                                               ; preds = %0, %12
  %13 = phi i64 [ %16, %12 ], [ 0, %0 ]
  %14 = getelementptr inbounds [300 x i32], [300 x i32]* %2, i64 0, i64 %13
  %15 = call i32 (i8*, ...) @__isoc99_scanf(i8* getelementptr inbounds ([3 x i8], [3 x i8]* @.str, i64 0, i64 0), i32* nonnull %14)
  %16 = add nuw nsw i64 %13, 1
  %17 = load i32, i32* %1, align 4, !tbaa !5
  %18 = sext i32 %17 to i64
  %19 = icmp slt i64 %16, %18
  br i1 %19, label %12, label %20, !llvm.loop !9

20:                                               ; preds = %12
  %21 = load i32, i32* %8, align 16, !tbaa !5
  store i32 %21, i32* %9, align 16, !tbaa !5
  %22 = icmp sgt i32 %17, 1
  br i1 %22, label %23, label %68

23:                                               ; preds = %20
  %24 = zext i32 %17 to i64
  br label %25

25:                                               ; preds = %23, %57
  %26 = phi i64 [ 1, %23 ], [ %59, %57 ]
  %27 = phi i32 [ 1, %23 ], [ %58, %57 ]
  %28 = icmp sgt i32 %27, 0
  br i1 %28, label %29, label %48

29:                                               ; preds = %25
  %30 = getelementptr inbounds [300 x i32], [300 x i32]* %2, i64 0, i64 %26
  %31 = load i32, i32* %30, align 4, !tbaa !5
  %32 = zext i32 %27 to i64
  br label %38

33:                                               ; preds = %57
  %34 = icmp sgt i32 %58, 1
  br i1 %34, label %35, label %68

35:                                               ; preds = %33
  %36 = add nsw i32 %58, -1
  %37 = zext i32 %36 to i64
  br label %61

38:                                               ; preds = %29, %43
  %39 = phi i64 [ 0, %29 ], [ %44, %43 ]
  %40 = getelementptr inbounds [300 x i32], [300 x i32]* %3, i64 0, i64 %39
  %41 = load i32, i32* %40, align 4, !tbaa !5
  %42 = icmp eq i32 %31, %41
  br i1 %42, label %46, label %43

43:                                               ; preds = %38
  %44 = add nuw nsw i64 %39, 1
  %45 = icmp eq i64 %44, %32
  br i1 %45, label %51, label %38, !llvm.loop !11

46:                                               ; preds = %38
  %47 = trunc i64 %39 to i32
  br label %48

48:                                               ; preds = %46, %25
  %49 = phi i32 [ 0, %25 ], [ %47, %46 ]
  %50 = icmp eq i32 %49, %27
  br i1 %50, label %51, label %57

51:                                               ; preds = %43, %48
  %52 = getelementptr inbounds [300 x i32], [300 x i32]* %2, i64 0, i64 %26
  %53 = load i32, i32* %52, align 4, !tbaa !5
  %54 = zext i32 %27 to i64
  %55 = getelementptr inbounds [300 x i32], [300 x i32]* %3, i64 0, i64 %54
  store i32 %53, i32* %55, align 4, !tbaa !5
  %56 = add nsw i32 %27, 1
  br label %57

57:                                               ; preds = %48, %51
  %58 = phi i32 [ %56, %51 ], [ %27, %48 ]
  %59 = add nuw nsw i64 %26, 1
  %60 = icmp eq i64 %59, %24
  br i1 %60, label %33, label %25, !llvm.loop !12

61:                                               ; preds = %35, %61
  %62 = phi i64 [ 0, %35 ], [ %66, %61 ]
  %63 = getelementptr inbounds [300 x i32], [300 x i32]* %3, i64 0, i64 %62
  %64 = load i32, i32* %63, align 4, !tbaa !5
  %65 = call i32 (i8*, ...) @printf(i8* nonnull dereferenceable(1) getelementptr inbounds ([4 x i8], [4 x i8]* @.str.1, i64 0, i64 0), i32 %64)
  %66 = add nuw nsw i64 %62, 1
  %67 = icmp eq i64 %66, %37
  br i1 %67, label %68, label %61, !llvm.loop !13

68:                                               ; preds = %61, %0, %20, %33
  %69 = phi i32 [ %58, %33 ], [ 1, %20 ], [ 1, %0 ], [ %58, %61 ]
  %70 = sext i32 %69 to i64
  %71 = getelementptr inbounds [300 x i32], [300 x i32]* %3, i64 0, i64 %70
  %72 = getelementptr inbounds i32, i32* %71, i64 -1
  %73 = load i32, i32* %72, align 4, !tbaa !5
  %74 = call i32 (i8*, ...) @printf(i8* nonnull dereferenceable(1) getelementptr inbounds ([3 x i8], [3 x i8]* @.str, i64 0, i64 0), i32 %73)
  call void @llvm.lifetime.end.p0i8(i64 1200, i8* nonnull %7) #3
  call void @llvm.lifetime.end.p0i8(i64 1200, i8* nonnull %6) #3
  call void @llvm.lifetime.end.p0i8(i64 4, i8* nonnull %4) #3
  ret i32 0
}

; Function Attrs: argmemonly mustprogress nofree nosync nounwind willreturn
declare void @llvm.lifetime.start.p0i8(i64 immarg, i8* nocapture) #1

; Function Attrs: nofree nounwind
declare noundef i32 @__isoc99_scanf(i8* nocapture noundef readonly, ...) local_unnamed_addr #2

; Function Attrs: nofree nounwind
declare noundef i32 @printf(i8* nocapture noundef readonly, ...) local_unnamed_addr #2

; Function Attrs: argmemonly mustprogress nofree nosync nounwind willreturn
declare void @llvm.lifetime.end.p0i8(i64 immarg, i8* nocapture) #1


!llvm.module.flags = !{!0, !1, !2, !3}
!llvm.ident = !{!4}

!0 = !{i32 1, !"wchar_size", i32 4}
!1 = !{i32 7, !"PIC Level", i32 2}
!2 = !{i32 7, !"PIE Level", i32 2}
!3 = !{i32 7, !"uwtable", i32 1}
!4 = !{!"clang version 13.0.0"}
!5 = !{!6, !6, i64 0}
!6 = !{!"int", !7, i64 0}
!7 = !{!"omnipotent char", !8, i64 0}
!8 = !{!"Simple C/C++ TBAA"}
!9 = distinct !{!9, !10}
!10 = !{!"llvm.loop.mustprogress"}
!11 = distinct !{!11, !10}
!12 = distinct !{!12, !10}
!13 = distinct !{!13, !10}
